*** 定数 ***

*** BSSセグメント ***
0000          	_MEM	DS	1
0000          	.window	DS	1

*** ヘッダ ***
magic = 0107
text  = 010e
data  = 000a
bss   = 0002
syms  = 003c
entry = 0000
trsize= 005c
drsize= 0004

*** TEXTセグメント ***
0000 c0c0     	_createWinL	PUSH	FP
0001 0ccd     		LD	FP,SP
0002 c060     		PUSH	G6
0003 c070     		PUSH	G7
0004 081f 0026		LD	G1,#38
0006 c010     		PUSH	G1
0007 081f 0012		LD	G1,#18
0009 c010     		PUSH	G1
000a 4411     		XOR	G1,G1
000b c010     		PUSH	G1
000c 4411     		XOR	G1,G1
000d c010     		PUSH	G1
000e a000 0000		CALL	_newWin
0010 18df 0004		ADD	SP,#4
0012 1000 0000		ST	G0,.window
0014 0810 0000		LD	G1,.window
0016 c010     		PUSH	G1
0017 a000 0000		CALL	_wClear
0019 18df 0001		ADD	SP,#1
001b 4466     		XOR	G6,G6
001c          	.L4
001c 286f 0004		CMP	G6,#4
001e 9500 0043		JGE	.L5
0020 0820 0117		LD	G2,.xi
0022 1c26     		ADD	G2,G6
0023 0812 0000		LD	G1,0,G2
0025 c010     		PUSH	G1
0026 0820 0112		LD	G2,.yi
0028 1c26     		ADD	G2,G6
0029 0812 0000		LD	G1,0,G2
002b c010     		PUSH	G1
002c 0810 0000		LD	G1,.window
002e c010     		PUSH	G1
002f a000 0000		CALL	_wMove
0031 18df 0003		ADD	SP,#3
0033 081f 002b		LD	G1,#43
0035 c010     		PUSH	G1
0036 0810 0000		LD	G1,.window
0038 c010     		PUSH	G1
0039 a000 0000		CALL	_wPutc
003b 18df 0002		ADD	SP,#2
003d 0c26     		LD	G2,G6
003e 182f 0001		ADD	G2,#1
0040 0c62     		LD	G6,G2
0041 9f00 001c		JMP	.L4
0043          	.L5
0043 086f 0001		LD	G6,#1
0045          	.L6
0045 286f 0003		CMP	G6,#3
0047 9500 0073		JGE	.L7
0049 087f 0001		LD	G7,#1
004b          	.L8
004b 287f 0025		CMP	G7,#37
004d 9500 006d		JGE	.L9
004f c070     		PUSH	G7
0050 0820 0112		LD	G2,.yi
0052 1c26     		ADD	G2,G6
0053 0812 0000		LD	G1,0,G2
0055 c010     		PUSH	G1
0056 0810 0000		LD	G1,.window
0058 c010     		PUSH	G1
0059 a000 0000		CALL	_wMove
005b 18df 0003		ADD	SP,#3
005d 081f 002d		LD	G1,#45
005f c010     		PUSH	G1
0060 0810 0000		LD	G1,.window
0062 c010     		PUSH	G1
0063 a000 0000		CALL	_wPutc
0065 18df 0002		ADD	SP,#2
0067 0c27     		LD	G2,G7
0068 182f 0001		ADD	G2,#1
006a 0c72     		LD	G7,G2
006b 9f00 004b		JMP	.L8
006d          	.L9
006d 0c26     		LD	G2,G6
006e 182f 0001		ADD	G2,#1
0070 0c62     		LD	G6,G2
0071 9f00 0045		JMP	.L6
0073          	.L7
0073 4466     		XOR	G6,G6
0074          	.L10
0074 286f 0002		CMP	G6,#2
0076 9500 00a2		JGE	.L11
0078 087f 0001		LD	G7,#1
007a          	.L12
007a 287f 0011		CMP	G7,#17
007c 9500 009c		JGE	.L13
007e 0820 0117		LD	G2,.xi
0080 1c26     		ADD	G2,G6
0081 0812 0000		LD	G1,0,G2
0083 c010     		PUSH	G1
0084 c070     		PUSH	G7
0085 0810 0000		LD	G1,.window
0087 c010     		PUSH	G1
0088 a000 0000		CALL	_wMove
008a 18df 0003		ADD	SP,#3
008c 081f 007c		LD	G1,#124
008e c010     		PUSH	G1
008f 0810 0000		LD	G1,.window
0091 c010     		PUSH	G1
0092 a000 0000		CALL	_wPutc
0094 18df 0002		ADD	SP,#2
0096 0c27     		LD	G2,G7
0097 182f 0001		ADD	G2,#1
0099 0c72     		LD	G7,G2
009a 9f00 007a		JMP	.L12
009c          	.L13
009c 0c26     		LD	G2,G6
009d 182f 0001		ADD	G2,#1
009f 0c62     		LD	G6,G2
00a0 9f00 0074		JMP	.L10
00a2          	.L11
00a2 081f 0007		LD	G1,#7
00a4 c010     		PUSH	G1
00a5 081f 0001		LD	G1,#1
00a7 c010     		PUSH	G1
00a8 0810 0000		LD	G1,.window
00aa c010     		PUSH	G1
00ab a000 0000		CALL	_wMove
00ad 18df 0003		ADD	SP,#3
00af 081f 00fe		LD	G1,#.L3
00b1 c010     		PUSH	G1
00b2 0810 0000		LD	G1,.window
00b4 c010     		PUSH	G1
00b5 a000 0000		CALL	_wPuts
00b7 18df 0002		ADD	SP,#2
00b9 c470     		POP	G7
00ba c460     		POP	G6
00bb c4c0     		POP	FP
00bc d000     		RET
00bd c0c0     	_showDisplayer	PUSH	FP
00be 0ccd     		LD	FP,SP
00bf c060     		PUSH	G6
00c0 4466     		XOR	G6,G6
00c1          	.L15
00c1 286f 000a		CMP	G6,#10
00c3 9500 00fb		JGE	.L16
00c5 081f 000a		LD	G1,#10
00c7 c010     		PUSH	G1
00c8 0c26     		LD	G2,G6
00c9 182f 0001		ADD	G2,#1
00cb c020     		PUSH	G2
00cc 0810 0000		LD	G1,.window
00ce c010     		PUSH	G1
00cf a000 0000		CALL	_wMove
00d1 18df 0003		ADD	SP,#3
00d3 082c 0002		LD	G2,2,FP
00d5 1c26     		ADD	G2,G6
00d6 0822 0000		LD	G2,0,G2
00d8 282f 0000		CMP	G2,#0
00da 9000 00eb		JZ	.L18
00dc 082c 0002		LD	G2,2,FP
00de 1c26     		ADD	G2,G6
00df 0812 0000		LD	G1,0,G2
00e1 c010     		PUSH	G1
00e2 0810 0000		LD	G1,.window
00e4 c010     		PUSH	G1
00e5 a000 0000		CALL	_wPuts
00e7 18df 0002		ADD	SP,#2
00e9 9f00 00f5		JMP	.L17
00eb          	.L18
00eb 081f 0101		LD	G1,#.L14
00ed c010     		PUSH	G1
00ee 0810 0000		LD	G1,.window
00f0 c010     		PUSH	G1
00f1 a000 0000		CALL	_wPuts
00f3 18df 0002		ADD	SP,#2
00f5          	.L17
00f5 0c26     		LD	G2,G6
00f6 182f 0001		ADD	G2,#1
00f8 0c62     		LD	G6,G2
00f9 9f00 00c1		JMP	.L15
00fb          	.L16
00fb c460     		POP	G6
00fc c4c0     		POP	FP
00fd d000     		RET
00fe 003d 003e	.L3	STRING	"=>"
0100 0000
0101 002d 002d	.L14	STRING	"------------"
0103 002d 002d
0105 002d 002d
0107 002d 002d
0109 002d 002d
010b 002d 002d
010d 0000

*** DATAセグメント ***
010e 0000     	.L1	DC	0
010f 0000     		DC	0
0110 0012     		DC	18
0111 0012     		DC	18
0112 010e     	.yi	DC	.L1
0113 0000     	.L2	DC	0
0114 0026     		DC	38
0115 0000     		DC	0
0116 0026     		DC	38
0117 0113     	.xi	DC	.L2

*** 再配置表 ***
TR領域
Addr	Name	Type	No.
000f	_newWin	UNDF	  7
0013	.window	BSS	  8
0015	.window	BSS	  8
0018	_wClear	UNDF	  9
001f	.L5	TEXT	 11
0021	.xi	DATA	  4
0027	.yi	DATA	  2
002d	.window	BSS	  8
0030	_wMove	UNDF	 12
0037	.window	BSS	  8
003a	_wPutc	UNDF	 13
0042	.L4	TEXT	 10
0048	.L7	TEXT	 15
004e	.L9	TEXT	 17
0051	.yi	DATA	  2
0057	.window	BSS	  8
005a	_wMove	UNDF	 12
0061	.window	BSS	  8
0064	_wPutc	UNDF	 13
006c	.L8	TEXT	 16
0072	.L6	TEXT	 14
0077	.L11	TEXT	 19
007d	.L13	TEXT	 21
007f	.xi	DATA	  4
0086	.window	BSS	  8
0089	_wMove	UNDF	 12
0090	.window	BSS	  8
0093	_wPutc	UNDF	 13
009b	.L12	TEXT	 20
00a1	.L10	TEXT	 18
00a9	.window	BSS	  8
00ac	_wMove	UNDF	 12
00b0	.L3	TEXT	  5
00b3	.window	BSS	  8
00b6	_wPuts	UNDF	 22
00c4	.L16	TEXT	 26
00cd	.window	BSS	  8
00d0	_wMove	UNDF	 12
00db	.L18	TEXT	 27
00e3	.window	BSS	  8
00e6	_wPuts	UNDF	 22
00ea	.L17	TEXT	 28
00ec	.L14	TEXT	 23
00ef	.window	BSS	  8
00f2	_wPuts	UNDF	 22
00fa	.L15	TEXT	 25

DR領域
Addr	Name	Type	No.
0004	.L1	DATA	  1
0009	.L2	DATA	  3

*** 名前表 ***
No.	Name	Type	Value	Offset
0	@dispL.s	TEXT	0000	0000
1	.L1	DATA	0000	0009
2	.yi	DATA	0004	000d
3	.L2	DATA	0005	0011
4	.xi	DATA	0009	0015
5	.L3	TEXT	00fe	0019
6	_createWinL	TEXT	0000	001d
7	_newWin	UNDF	0000	0029
8	.window	BSS	0001	0031
9	_wClear	UNDF	0000	0039
10	.L4	TEXT	001c	0041
11	.L5	TEXT	0043	0045
12	_wMove	UNDF	0000	0049
13	_wPutc	UNDF	0000	0050
14	.L6	TEXT	0045	0057
15	.L7	TEXT	0073	005b
16	.L8	TEXT	004b	005f
17	.L9	TEXT	006d	0063
18	.L10	TEXT	0074	0067
19	.L11	TEXT	00a2	006c
20	.L12	TEXT	007a	0071
21	.L13	TEXT	009c	0076
22	_wPuts	UNDF	0000	007b
23	.L14	TEXT	0101	0082
24	_showDisplayer	TEXT	00bd	0087
25	.L15	TEXT	00c1	0096
26	.L16	TEXT	00fb	009b
27	.L18	TEXT	00eb	00a0
28	.L17	TEXT	00f5	00a5
29	_MEM	BSS	0001	00aa

*** 文字列表 ***
Offset	String
0000	@dispL.s
0009	.L1
000d	.yi
0011	.L2
0015	.xi
0019	.L3
001d	_createWinL
0029	_newWin
0031	.window
0039	_wClear
0041	.L4
0045	.L5
0049	_wMove
0050	_wPutc
0057	.L6
005b	.L7
005f	.L8
0063	.L9
0067	.L10
006c	.L11
0071	.L12
0076	.L13
007b	_wPuts
0082	.L14
0087	_showDisplayer
0096	.L15
009b	.L16
00a0	.L18
00a5	.L17
00aa	_MEM
