*** 定数 ***

*** BSSセグメント ***
0000          	.L1	DS	39
0000          	.L2	DS	39
0000          	.L3	DS	39
0000          	.L4	DS	39
0000          	.L5	DS	39
0000          	.L6	DS	39
0000          	.L7	DS	39
0000          	.L8	DS	39
0000          	.L9	DS	39
0000          	.L10	DS	39
0000          	.L24	DS	39
0000          	_MEM	DS	1
0000          	.key	DS	1
0000          	.sem	DS	1

*** ヘッダ ***
magic = 0107
text  = 02b4
data  = 0011
bss   = 01b0
syms  = 00d6
entry = 0000
trsize= 013e
drsize= 0018

*** TEXTセグメント ***
0000 c0c0     	.rand	PUSH	FP
0001 0ccd     		LD	FP,SP
0002 0820 02c3		LD	G2,.seed
0004 482f 000d		MUL	G2,#13
0006 182f 0001		ADD	G2,#1
0008 4433     		XOR	G3,G3
0009 502f 0020		DIV	G2,#32
000b 0c23     		LD	G2,G3
000c 1020 02c3		ST	G2,.seed
000e 0800 02c3		LD	G0,.seed
0010 c4c0     		POP	FP
0011 d000     		RET
0012 c0c0     	.updateDisplayer	PUSH	FP
0013 0ccd     		LD	FP,SP
0014 c060     		PUSH	G6
0015 c070     		PUSH	G7
0016 a000 0000		CALL	_getDictLen
0018 0c60     		LD	G6,G0
0019 4477     		XOR	G7,G7
001a          	.L12
001a 287f 000a		CMP	G7,#10
001c 9500 003f		JGE	.L13
001e 0820 02b5		LD	G2,.number
0020 1c27     		ADD	G2,G7
0021 2c26     		CMP	G2,G6
0022 9700 002c		JLT	.L15
0024 0820 02c0		LD	G2,.displayer
0026 1c27     		ADD	G2,G7
0027 4444     		XOR	G4,G4
0028 1042 0000		ST	G4,0,G2
002a 9f00 0039		JMP	.L14
002c          	.L15
002c 0820 02b5		LD	G2,.number
002e 1c27     		ADD	G2,G7
002f c020     		PUSH	G2
0030 a000 0000		CALL	_getFileName
0032 18df 0001		ADD	SP,#1
0034 0820 02c0		LD	G2,.displayer
0036 1c27     		ADD	G2,G7
0037 1002 0000		ST	G0,0,G2
0039          	.L14
0039 0c27     		LD	G2,G7
003a 182f 0001		ADD	G2,#1
003c 0c72     		LD	G7,G2
003d 9f00 001a		JMP	.L12
003f          	.L13
003f 0810 02c0		LD	G1,.displayer
0041 c010     		PUSH	G1
0042 a000 0000		CALL	_showDisplayer
0044 18df 0001		ADD	SP,#1
0046 c470     		POP	G7
0047 c460     		POP	G6
0048 c4c0     		POP	FP
0049 d000     		RET
004a c0c0     	.skip	PUSH	FP
004b 0ccd     		LD	FP,SP
004c c060     		PUSH	G6
004d c070     		PUSH	G7
004e 0820 02b5		LD	G2,.number
0050 182c 0002		ADD	G2,2,FP
0052 0c62     		LD	G6,G2
0053 a000 0000		CALL	_getDictLen
0055 0c70     		LD	G7,G0
0056 2c67     		CMP	G6,G7
0057 9700 005f		JLT	.L17
0059 082f 0002		LD	G2,#2
005b 1020 02b5		ST	G2,.number
005d 9f00 006b		JMP	.L16
005f          	.L17
005f 286f 0002		CMP	G6,#2
0061 9400 0069		JGT	.L19
0063 082f 0002		LD	G2,#2
0065 1020 02b5		ST	G2,.number
0067 9f00 006b		JMP	.L18
0069          	.L19
0069 1060 02b5		ST	G6,.number
006b          	.L18
006b          	.L16
006b c470     		POP	G7
006c c460     		POP	G6
006d c4c0     		POP	FP
006e d000     		RET
006f c0c0     	.next	PUSH	FP
0070 0ccd     		LD	FP,SP
0071 081f 0001		LD	G1,#1
0073 c010     		PUSH	G1
0074 a000 004a		CALL	.skip
0076 18df 0001		ADD	SP,#1
0078 a000 0012		CALL	.updateDisplayer
007a c4c0     		POP	FP
007b d000     		RET
007c c0c0     	.back	PUSH	FP
007d 0ccd     		LD	FP,SP
007e 081f ffff		LD	G1,#65535
0080 c010     		PUSH	G1
0081 a000 004a		CALL	.skip
0083 18df 0001		ADD	SP,#1
0085 a000 0012		CALL	.updateDisplayer
0087 c4c0     		POP	FP
0088 d000     		RET
0089 c0c0     	.changeRndMode	PUSH	FP
008a 0ccd     		LD	FP,SP
008b 0820 02c1		LD	G2,.rndMode
008d 402f 0001		XOR	G2,#1
008f 1020 02c1		ST	G2,.rndMode
0091 0810 02c1		LD	G1,.rndMode
0093 c010     		PUSH	G1
0094 a000 0000		CALL	_showRndMode
0096 18df 0001		ADD	SP,#1
0098 c4c0     		POP	FP
0099 d000     		RET
009a c0c0     	.changeLockMode	PUSH	FP
009b 0ccd     		LD	FP,SP
009c 0820 02c2		LD	G2,.lockMode
009e 402f 0001		XOR	G2,#1
00a0 1020 02c2		ST	G2,.lockMode
00a2 0810 02c2		LD	G1,.lockMode
00a4 c010     		PUSH	G1
00a5 a000 0000		CALL	_showLockMode
00a7 18df 0001		ADD	SP,#1
00a9 c4c0     		POP	FP
00aa d000     		RET
00ab c0c0     	.joinPath	PUSH	FP
00ac 0ccd     		LD	FP,SP
00ad c060     		PUSH	G6
00ae c070     		PUSH	G7
00af 4466     		XOR	G6,G6
00b0 4477     		XOR	G7,G7
00b1          	.L20
00b1 082c 0003		LD	G2,3,FP
00b3 1c27     		ADD	G2,G7
00b4 084c 0002		LD	G4,2,FP
00b6 1c46     		ADD	G4,G6
00b7 0822 0000		LD	G2,0,G2
00b9 1024 0000		ST	G2,0,G4
00bb 282f 0000		CMP	G2,#0
00bd 9000 00c9		JZ	.L21
00bf 0c27     		LD	G2,G7
00c0 182f 0001		ADD	G2,#1
00c2 0c62     		LD	G6,G2
00c3 0c27     		LD	G2,G7
00c4 182f 0001		ADD	G2,#1
00c6 0c72     		LD	G7,G2
00c7 9f00 00b1		JMP	.L20
00c9          	.L21
00c9 082c 0002		LD	G2,2,FP
00cb 1c26     		ADD	G2,G6
00cc 084f 002f		LD	G4,#47
00ce 1042 0000		ST	G4,0,G2
00d0 0c26     		LD	G2,G6
00d1 182f 0001		ADD	G2,#1
00d3 0c62     		LD	G6,G2
00d4 4477     		XOR	G7,G7
00d5          	.L22
00d5 082c 0004		LD	G2,4,FP
00d7 1c27     		ADD	G2,G7
00d8 084c 0002		LD	G4,2,FP
00da 1c46     		ADD	G4,G6
00db 0822 0000		LD	G2,0,G2
00dd 1024 0000		ST	G2,0,G4
00df 282f 0000		CMP	G2,#0
00e1 9000 00ed		JZ	.L23
00e3 0c26     		LD	G2,G6
00e4 182f 0001		ADD	G2,#1
00e6 0c62     		LD	G6,G2
00e7 0c27     		LD	G2,G7
00e8 182f 0001		ADD	G2,#1
00ea 0c72     		LD	G7,G2
00eb 9f00 00d5		JMP	.L22
00ed          	.L23
00ed 082c 0002		LD	G2,2,FP
00ef 1c26     		ADD	G2,G6
00f0 4444     		XOR	G4,G4
00f1 1042 0000		ST	G4,0,G2
00f3 c470     		POP	G7
00f4 c460     		POP	G6
00f5 c4c0     		POP	FP
00f6 d000     		RET
00f7 c0c0     	_appInit	PUSH	FP
00f8 0ccd     		LD	FP,SP
00f9 4411     		XOR	G1,G1
00fa c010     		PUSH	G1
00fb a000 0000		CALL	_newSem
00fd 18df 0001		ADD	SP,#1
00ff 1000 0000		ST	G0,.sem
0101 a000 0000		CALL	_createWinB
0103 a000 0000		CALL	_createWinL
0105 a000 0000		CALL	_playerInit
0107 c4c0     		POP	FP
0108 d000     		RET
0109 c0c0     	_appMain	PUSH	FP
010a 0ccd     		LD	FP,SP
010b c060     		PUSH	G6
010c c070     		PUSH	G7
010d c080     		PUSH	G8
010e 4411     		XOR	G1,G1
010f c010     		PUSH	G1
0110 081f 029b		LD	G1,#.L25
0112 c010     		PUSH	G1
0113 0810 02c4		LD	G1,.dpath
0115 c010     		PUSH	G1
0116 a000 0000		CALL	_strcpy
0118 18df 0003		ADD	SP,#3
011a 0810 02c4		LD	G1,.dpath
011c c010     		PUSH	G1
011d a000 0000		CALL	_newDict
011f 18df 0001		ADD	SP,#1
0121 a000 0012		CALL	.updateDisplayer
0123 0810 02c1		LD	G1,.rndMode
0125 c010     		PUSH	G1
0126 a000 0000		CALL	_showRndMode
0128 18df 0001		ADD	SP,#1
012a 0810 02c2		LD	G1,.lockMode
012c c010     		PUSH	G1
012d a000 0000		CALL	_showLockMode
012f 18df 0001		ADD	SP,#1
0131 081f 02a3		LD	G1,#.L26
0133 c010     		PUSH	G1
0134 a000 0000		CALL	_showKeybind
0136 18df 0001		ADD	SP,#1
0138          	.L28
0138 081f 00fa		LD	G1,#250
013a c010     		PUSH	G1
013b a000 0000		CALL	_sleep
013d 18df 0001		ADD	SP,#1
013f 081f 0027		LD	G1,#39
0141 c010     		PUSH	G1
0142 a000 0000		CALL	_malloc
0144 18df 0001		ADD	SP,#1
0146 0c60     		LD	G6,G0
0147 0810 0000		LD	G1,.sem
0149 c010     		PUSH	G1
014a a000 0000		CALL	_semP
014c 18df 0001		ADD	SP,#1
014e 0820 02b4		LD	G2,.proidx
0150 282f 0002		CMP	G2,#2
0152 9800 020e		JNZ	.L31
0154 0820 02c2		LD	G2,.lockMode
0156 402f 0001		XOR	G2,#1
0158 282f 0000		CMP	G2,#0
015a 9000 0204		JZ	.L32
015c 0820 0000		LD	G2,.key
015e 282f 0077		CMP	G2,#119
0160 9800 0166		JNZ	.L34
0162 a000 007c		CALL	.back
0164 9f00 0204		JMP	.L33
0166          	.L34
0166 0820 0000		LD	G2,.key
0168 282f 0073		CMP	G2,#115
016a 9800 0170		JNZ	.L36
016c a000 006f		CALL	.next
016e 9f00 0204		JMP	.L35
0170          	.L36
0170 0820 0000		LD	G2,.key
0172 282f 0071		CMP	G2,#113
0174 9800 0195		JNZ	.L38
0176 4411     		XOR	G1,G1
0177 c010     		PUSH	G1
0178 081f 02ac		LD	G1,#.L27
017a c010     		PUSH	G1
017b 0810 02c4		LD	G1,.dpath
017d c010     		PUSH	G1
017e a000 0000		CALL	_strcpy
0180 18df 0003		ADD	SP,#3
0182 0810 02c4		LD	G1,.dpath
0184 c010     		PUSH	G1
0185 a000 0000		CALL	_renewDict
0187 18df 0001		ADD	SP,#1
0189 082f 0001		LD	G2,#1
018b 1020 02c3		ST	G2,.seed
018d 082f 0002		LD	G2,#2
018f 1020 02b5		ST	G2,.number
0191 a000 0012		CALL	.updateDisplayer
0193 9f00 0204		JMP	.L37
0195          	.L38
0195 0820 0000		LD	G2,.key
0197 282f 0070		CMP	G2,#112
0199 9800 01d4		JNZ	.L40
019b 0810 02b5		LD	G1,.number
019d c010     		PUSH	G1
019e a000 0000		CALL	_getIsdir
01a0 18df 0001		ADD	SP,#1
01a2 280f 0000		CMP	G0,#0
01a4 9800 01ba		JNZ	.L42
01a6 0820 02c0		LD	G2,.displayer
01a8 0812 0000		LD	G1,0,G2
01aa c010     		PUSH	G1
01ab 0810 02c4		LD	G1,.dpath
01ad c010     		PUSH	G1
01ae c060     		PUSH	G6
01af a000 00ab		CALL	.joinPath
01b1 18df 0003		ADD	SP,#3
01b3 c060     		PUSH	G6
01b4 a000 0000		CALL	_play
01b6 18df 0001		ADD	SP,#1
01b8 9f00 01d2		JMP	.L41
01ba          	.L42
01ba 0820 02c0		LD	G2,.displayer
01bc 0812 0000		LD	G1,0,G2
01be c010     		PUSH	G1
01bf 0810 02c4		LD	G1,.dpath
01c1 c010     		PUSH	G1
01c2 0810 02c4		LD	G1,.dpath
01c4 c010     		PUSH	G1
01c5 a000 00ab		CALL	.joinPath
01c7 18df 0003		ADD	SP,#3
01c9 0810 02c4		LD	G1,.dpath
01cb c010     		PUSH	G1
01cc a000 0000		CALL	_renewDict
01ce 18df 0001		ADD	SP,#1
01d0 a000 0012		CALL	.updateDisplayer
01d2          	.L41
01d2 9f00 0204		JMP	.L39
01d4          	.L40
01d4 0820 0000		LD	G2,.key
01d6 282f 006f		CMP	G2,#111
01d8 9800 01de		JNZ	.L44
01da a000 0000		CALL	_stop
01dc 9f00 0204		JMP	.L43
01de          	.L44
01de 0820 0000		LD	G2,.key
01e0 282f 0069		CMP	G2,#105
01e2 9800 01e8		JNZ	.L46
01e4 a000 0000		CALL	_pause
01e6 9f00 0204		JMP	.L45
01e8          	.L46
01e8 0820 0000		LD	G2,.key
01ea 282f 0068		CMP	G2,#104
01ec 9800 01f2		JNZ	.L48
01ee a000 0000		CALL	_volumeUp
01f0 9f00 0204		JMP	.L47
01f2          	.L48
01f2 0820 0000		LD	G2,.key
01f4 282f 006a		CMP	G2,#106
01f6 9800 01fc		JNZ	.L50
01f8 a000 0000		CALL	_volumeDown
01fa 9f00 0204		JMP	.L49
01fc          	.L50
01fc 0820 0000		LD	G2,.key
01fe 282f 0072		CMP	G2,#114
0200 9800 0204		JNZ	.L51
0202 a000 0089		CALL	.changeRndMode
0204          	.L51
0204          	.L49
0204          	.L47
0204          	.L45
0204          	.L43
0204          	.L39
0204          	.L37
0204          	.L35
0204          	.L33
0204          	.L32
0204 0820 0000		LD	G2,.key
0206 282f 006c		CMP	G2,#108
0208 9800 020c		JNZ	.L52
020a a000 009a		CALL	.changeLockMode
020c          	.L52
020c 9f00 0267		JMP	.L30
020e          	.L31
020e 0820 02b4		LD	G2,.proidx
0210 282f 0003		CMP	G2,#3
0212 9800 0267		JNZ	.L53
0214 a000 0000		CALL	_stop
0216 0810 02c1		LD	G1,.rndMode
0218 281f 0000		CMP	G1,#0
021a 9000 0248		JZ	.L55
021c 4477     		XOR	G7,G7
021d a000 0000		CALL	_getDictLen
021f 0c80     		LD	G8,G0
0220          	.L56
0220 a000 0000		CALL	.rand
0222 0c70     		LD	G7,G0
0223 287f 0002		CMP	G7,#2
0225 9700 0220		JLT	.L56
0227 2c87     		CMP	G8,G7
0228 9600 0220		JLE	.L56
022a c070     		PUSH	G7
022b a000 0000		CALL	_getIsdir
022d 18df 0001		ADD	SP,#1
022f 280f 0000		CMP	G0,#0
0231 9800 0246		JNZ	.L57
0233 c070     		PUSH	G7
0234 a000 0000		CALL	_getFileName
0236 18df 0001		ADD	SP,#1
0238 c000     		PUSH	G0
0239 0810 02c4		LD	G1,.dpath
023b c010     		PUSH	G1
023c c060     		PUSH	G6
023d a000 00ab		CALL	.joinPath
023f 18df 0003		ADD	SP,#3
0241 c060     		PUSH	G6
0242 a000 0000		CALL	_play
0244 18df 0001		ADD	SP,#1
0246          	.L57
0246 9f00 0267		JMP	.L54
0248          	.L55
0248 a000 006f		CALL	.next
024a 0810 02b5		LD	G1,.number
024c c010     		PUSH	G1
024d a000 0000		CALL	_getIsdir
024f 18df 0001		ADD	SP,#1
0251 280f 0000		CMP	G0,#0
0253 9800 0267		JNZ	.L58
0255 0820 02c0		LD	G2,.displayer
0257 0812 0000		LD	G1,0,G2
0259 c010     		PUSH	G1
025a 0810 02c4		LD	G1,.dpath
025c c010     		PUSH	G1
025d c060     		PUSH	G6
025e a000 00ab		CALL	.joinPath
0260 18df 0003		ADD	SP,#3
0262 c060     		PUSH	G6
0263 a000 0000		CALL	_play
0265 18df 0001		ADD	SP,#1
0267          	.L58
0267          	.L54
0267          	.L53
0267          	.L30
0267 c060     		PUSH	G6
0268 a000 0000		CALL	_free
026a 18df 0001		ADD	SP,#1
026c 9f00 0138		JMP	.L28
026e          	.L29
026e c480     		POP	G8
026f c470     		POP	G7
0270 c460     		POP	G6
0271 c4c0     		POP	FP
0272 d000     		RET
0273 c0c0     	_detectSec	PUSH	FP
0274 0ccd     		LD	FP,SP
0275 a000 0000		CALL	_countUp
0277 c4c0     		POP	FP
0278 d000     		RET
0279 c0c0     	_detectKey	PUSH	FP
027a 0ccd     		LD	FP,SP
027b 082c 0002		LD	G2,2,FP
027d 1020 0000		ST	G2,.key
027f 082f 0002		LD	G2,#2
0281 1020 02b4		ST	G2,.proidx
0283 0810 0000		LD	G1,.sem
0285 c010     		PUSH	G1
0286 a000 0000		CALL	_semV
0288 18df 0001		ADD	SP,#1
028a c4c0     		POP	FP
028b d000     		RET
028c c0c0     	_detectEOF	PUSH	FP
028d 0ccd     		LD	FP,SP
028e 082f 0003		LD	G2,#3
0290 1020 02b4		ST	G2,.proidx
0292 0810 0000		LD	G1,.sem
0294 c010     		PUSH	G1
0295 a000 0000		CALL	_semV
0297 18df 0001		ADD	SP,#1
0299 c4c0     		POP	FP
029a d000     		RET
029b 0050 004c	.L25	STRING	"PLAYERS"
029d 0041 0059
029f 0045 0052
02a1 0053 0000
02a3 0068 0065	.L26	STRING	"help.txt"
02a5 006c 0070
02a7 002e 0074
02a9 0078 0074
02ab 0000
02ac 0050 004c	.L27	STRING	"PLAYERS"
02ae 0041 0059
02b0 0045 0052
02b2 0053 0000

*** DATAセグメント ***
02b4 0000     	.proidx	DC	0
02b5 0002     	.number	DC	2
02b6 0000     	.L11	DC	.L1
02b7 0000     		DC	.L2
02b8 0000     		DC	.L3
02b9 0000     		DC	.L4
02ba 0000     		DC	.L5
02bb 0000     		DC	.L6
02bc 0000     		DC	.L7
02bd 0000     		DC	.L8
02be 0000     		DC	.L9
02bf 0000     		DC	.L10
02c0 02b6     	.displayer	DC	.L11
02c1 0000     	.rndMode	DC	0
02c2 0000     	.lockMode	DC	0
02c3 0001     	.seed	DC	1
02c4 0000     	.dpath	DC	.L24

*** 再配置表 ***
TR領域
Addr	Name	Type	No.
0003	.seed	DATA	 17
000d	.seed	DATA	 17
000f	.seed	DATA	 17
0017	_getDictLen	UNDF	 20
001d	.L13	TEXT	 22
001f	.number	DATA	  2
0023	.L15	TEXT	 23
0025	.displayer	DATA	 14
002b	.L14	TEXT	 24
002d	.number	DATA	  2
0031	_getFileName	UNDF	 25
0035	.displayer	DATA	 14
003e	.L12	TEXT	 21
0040	.displayer	DATA	 14
0043	_showDisplayer	UNDF	 26
004f	.number	DATA	  2
0054	_getDictLen	UNDF	 20
0058	.L17	TEXT	 28
005c	.number	DATA	  2
005e	.L16	TEXT	 29
0062	.L19	TEXT	 30
0066	.number	DATA	  2
0068	.L18	TEXT	 31
006a	.number	DATA	  2
0075	.skip	TEXT	 27
0079	.updateDisplayer	TEXT	 19
0082	.skip	TEXT	 27
0086	.updateDisplayer	TEXT	 19
008c	.rndMode	DATA	 15
0090	.rndMode	DATA	 15
0092	.rndMode	DATA	 15
0095	_showRndMode	UNDF	 35
009d	.lockMode	DATA	 16
00a1	.lockMode	DATA	 16
00a3	.lockMode	DATA	 16
00a6	_showLockMode	UNDF	 37
00be	.L21	TEXT	 40
00c8	.L20	TEXT	 39
00e2	.L23	TEXT	 42
00ec	.L22	TEXT	 41
00fc	_newSem	UNDF	 44
0100	.sem	BSS	 45
0102	_createWinB	UNDF	 46
0104	_createWinL	UNDF	 47
0106	_playerInit	UNDF	 48
0111	.L25	TEXT	 51
0114	.dpath	DATA	 50
0117	_strcpy	UNDF	 55
011b	.dpath	DATA	 50
011e	_newDict	UNDF	 56
0122	.updateDisplayer	TEXT	 19
0124	.rndMode	DATA	 15
0127	_showRndMode	UNDF	 35
012b	.lockMode	DATA	 16
012e	_showLockMode	UNDF	 37
0132	.L26	TEXT	 52
0135	_showKeybind	UNDF	 57
013c	_sleep	UNDF	 59
0143	_malloc	UNDF	 60
0148	.sem	BSS	 45
014b	_semP	UNDF	 61
014f	.proidx	DATA	  1
0153	.L31	TEXT	 62
0155	.lockMode	DATA	 16
015b	.L32	TEXT	 63
015d	.key	BSS	 64
0161	.L34	TEXT	 65
0163	.back	TEXT	 33
0165	.L33	TEXT	 66
0167	.key	BSS	 64
016b	.L36	TEXT	 67
016d	.next	TEXT	 32
016f	.L35	TEXT	 68
0171	.key	BSS	 64
0175	.L38	TEXT	 69
0179	.L27	TEXT	 53
017c	.dpath	DATA	 50
017f	_strcpy	UNDF	 55
0183	.dpath	DATA	 50
0186	_renewDict	UNDF	 70
018c	.seed	DATA	 17
0190	.number	DATA	  2
0192	.updateDisplayer	TEXT	 19
0194	.L37	TEXT	 71
0196	.key	BSS	 64
019a	.L40	TEXT	 72
019c	.number	DATA	  2
019f	_getIsdir	UNDF	 73
01a5	.L42	TEXT	 74
01a7	.displayer	DATA	 14
01ac	.dpath	DATA	 50
01b0	.joinPath	TEXT	 38
01b5	_play	UNDF	 75
01b9	.L41	TEXT	 76
01bb	.displayer	DATA	 14
01c0	.dpath	DATA	 50
01c3	.dpath	DATA	 50
01c6	.joinPath	TEXT	 38
01ca	.dpath	DATA	 50
01cd	_renewDict	UNDF	 70
01d1	.updateDisplayer	TEXT	 19
01d3	.L39	TEXT	 77
01d5	.key	BSS	 64
01d9	.L44	TEXT	 78
01db	_stop	UNDF	 79
01dd	.L43	TEXT	 80
01df	.key	BSS	 64
01e3	.L46	TEXT	 81
01e5	_pause	UNDF	 82
01e7	.L45	TEXT	 83
01e9	.key	BSS	 64
01ed	.L48	TEXT	 84
01ef	_volumeUp	UNDF	 85
01f1	.L47	TEXT	 86
01f3	.key	BSS	 64
01f7	.L50	TEXT	 87
01f9	_volumeDown	UNDF	 88
01fb	.L49	TEXT	 89
01fd	.key	BSS	 64
0201	.L51	TEXT	 90
0203	.changeRndMode	TEXT	 34
0205	.key	BSS	 64
0209	.L52	TEXT	 91
020b	.changeLockMode	TEXT	 36
020d	.L30	TEXT	 92
020f	.proidx	DATA	  1
0213	.L53	TEXT	 93
0215	_stop	UNDF	 79
0217	.rndMode	DATA	 15
021b	.L55	TEXT	 94
021e	_getDictLen	UNDF	 20
0221	.rand	TEXT	 18
0226	.L56	TEXT	 95
0229	.L56	TEXT	 95
022c	_getIsdir	UNDF	 73
0232	.L57	TEXT	 96
0235	_getFileName	UNDF	 25
023a	.dpath	DATA	 50
023e	.joinPath	TEXT	 38
0243	_play	UNDF	 75
0247	.L54	TEXT	 97
0249	.next	TEXT	 32
024b	.number	DATA	  2
024e	_getIsdir	UNDF	 73
0254	.L58	TEXT	 98
0256	.displayer	DATA	 14
025b	.dpath	DATA	 50
025f	.joinPath	TEXT	 38
0264	_play	UNDF	 75
0269	_free	UNDF	 99
026d	.L28	TEXT	 58
0276	_countUp	UNDF	102
027e	.key	BSS	 64
0282	.proidx	DATA	  1
0284	.sem	BSS	 45
0287	_semV	UNDF	104
0291	.proidx	DATA	  1
0293	.sem	BSS	 45
0296	_semV	UNDF	104

DR領域
Addr	Name	Type	No.
0002	.L1	BSS	  3
0003	.L2	BSS	  4
0004	.L3	BSS	  5
0005	.L4	BSS	  6
0006	.L5	BSS	  7
0007	.L6	BSS	  8
0008	.L7	BSS	  9
0009	.L8	BSS	 10
000a	.L9	BSS	 11
000b	.L10	BSS	 12
000c	.L11	DATA	 13
0010	.L24	BSS	 49

*** 名前表 ***
No.	Name	Type	Value	Offset
0	@appMain.s	TEXT	0000	0000
1	.proidx	DATA	0000	000b
2	.number	DATA	0001	0013
3	.L1	BSS	0027	001b
4	.L2	BSS	0027	001f
5	.L3	BSS	0027	0023
6	.L4	BSS	0027	0027
7	.L5	BSS	0027	002b
8	.L6	BSS	0027	002f
9	.L7	BSS	0027	0033
10	.L8	BSS	0027	0037
11	.L9	BSS	0027	003b
12	.L10	BSS	0027	003f
13	.L11	DATA	0002	0044
14	.displayer	DATA	000c	0049
15	.rndMode	DATA	000d	0054
16	.lockMode	DATA	000e	005d
17	.seed	DATA	000f	0067
18	.rand	TEXT	0000	006d
19	.updateDisplayer	TEXT	0012	0073
20	_getDictLen	UNDF	0000	0084
21	.L12	TEXT	001a	0090
22	.L13	TEXT	003f	0095
23	.L15	TEXT	002c	009a
24	.L14	TEXT	0039	009f
25	_getFileName	UNDF	0000	00a4
26	_showDisplayer	UNDF	0000	00b1
27	.skip	TEXT	004a	00c0
28	.L17	TEXT	005f	00c6
29	.L16	TEXT	006b	00cb
30	.L19	TEXT	0069	00d0
31	.L18	TEXT	006b	00d5
32	.next	TEXT	006f	00da
33	.back	TEXT	007c	00e0
34	.changeRndMode	TEXT	0089	00e6
35	_showRndMode	UNDF	0000	00f5
36	.changeLockMode	TEXT	009a	0102
37	_showLockMode	UNDF	0000	0112
38	.joinPath	TEXT	00ab	0120
39	.L20	TEXT	00b1	012a
40	.L21	TEXT	00c9	012f
41	.L22	TEXT	00d5	0134
42	.L23	TEXT	00ed	0139
43	_appInit	TEXT	00f7	013e
44	_newSem	UNDF	0000	0147
45	.sem	BSS	0001	014f
46	_createWinB	UNDF	0000	0154
47	_createWinL	UNDF	0000	0160
48	_playerInit	UNDF	0000	016c
49	.L24	BSS	0027	0178
50	.dpath	DATA	0010	017d
51	.L25	TEXT	029b	0184
52	.L26	TEXT	02a3	0189
53	.L27	TEXT	02ac	018e
54	_appMain	TEXT	0109	0193
55	_strcpy	UNDF	0000	019c
56	_newDict	UNDF	0000	01a4
57	_showKeybind	UNDF	0000	01ad
58	.L28	TEXT	0138	01ba
59	_sleep	UNDF	0000	01bf
60	_malloc	UNDF	0000	01c6
61	_semP	UNDF	0000	01ce
62	.L31	TEXT	020e	01d4
63	.L32	TEXT	0204	01d9
64	.key	BSS	0001	01de
65	.L34	TEXT	0166	01e3
66	.L33	TEXT	0204	01e8
67	.L36	TEXT	0170	01ed
68	.L35	TEXT	0204	01f2
69	.L38	TEXT	0195	01f7
70	_renewDict	UNDF	0000	01fc
71	.L37	TEXT	0204	0207
72	.L40	TEXT	01d4	020c
73	_getIsdir	UNDF	0000	0211
74	.L42	TEXT	01ba	021b
75	_play	UNDF	0000	0220
76	.L41	TEXT	01d2	0226
77	.L39	TEXT	0204	022b
78	.L44	TEXT	01de	0230
79	_stop	UNDF	0000	0235
80	.L43	TEXT	0204	023b
81	.L46	TEXT	01e8	0240
82	_pause	UNDF	0000	0245
83	.L45	TEXT	0204	024c
84	.L48	TEXT	01f2	0251
85	_volumeUp	UNDF	0000	0256
86	.L47	TEXT	0204	0260
87	.L50	TEXT	01fc	0265
88	_volumeDown	UNDF	0000	026a
89	.L49	TEXT	0204	0276
90	.L51	TEXT	0204	027b
91	.L52	TEXT	020c	0280
92	.L30	TEXT	0267	0285
93	.L53	TEXT	0267	028a
94	.L55	TEXT	0248	028f
95	.L56	TEXT	0220	0294
96	.L57	TEXT	0246	0299
97	.L54	TEXT	0267	029e
98	.L58	TEXT	0267	02a3
99	_free	UNDF	0000	02a8
100	.L29	TEXT	026e	02ae
101	_detectSec	TEXT	0273	02b3
102	_countUp	UNDF	0000	02be
103	_detectKey	TEXT	0279	02c7
104	_semV	UNDF	0000	02d2
105	_detectEOF	TEXT	028c	02d8
106	_MEM	BSS	0001	02e3

*** 文字列表 ***
Offset	String
0000	@appMain.s
000b	.proidx
0013	.number
001b	.L1
001f	.L2
0023	.L3
0027	.L4
002b	.L5
002f	.L6
0033	.L7
0037	.L8
003b	.L9
003f	.L10
0044	.L11
0049	.displayer
0054	.rndMode
005d	.lockMode
0067	.seed
006d	.rand
0073	.updateDisplayer
0084	_getDictLen
0090	.L12
0095	.L13
009a	.L15
009f	.L14
00a4	_getFileName
00b1	_showDisplayer
00c0	.skip
00c6	.L17
00cb	.L16
00d0	.L19
00d5	.L18
00da	.next
00e0	.back
00e6	.changeRndMode
00f5	_showRndMode
0102	.changeLockMode
0112	_showLockMode
0120	.joinPath
012a	.L20
012f	.L21
0134	.L22
0139	.L23
013e	_appInit
0147	_newSem
014f	.sem
0154	_createWinB
0160	_createWinL
016c	_playerInit
0178	.L24
017d	.dpath
0184	.L25
0189	.L26
018e	.L27
0193	_appMain
019c	_strcpy
01a4	_newDict
01ad	_showKeybind
01ba	.L28
01bf	_sleep
01c6	_malloc
01ce	_semP
01d4	.L31
01d9	.L32
01de	.key
01e3	.L34
01e8	.L33
01ed	.L36
01f2	.L35
01f7	.L38
01fc	_renewDict
0207	.L37
020c	.L40
0211	_getIsdir
021b	.L42
0220	_play
0226	.L41
022b	.L39
0230	.L44
0235	_stop
023b	.L43
0240	.L46
0245	_pause
024c	.L45
0251	.L48
0256	_volumeUp
0260	.L47
0265	.L50
026a	_volumeDown
0276	.L49
027b	.L51
0280	.L52
0285	.L30
028a	.L53
028f	.L55
0294	.L56
0299	.L57
029e	.L54
02a3	.L58
02a8	_free
02ae	.L29
02b3	_detectSec
02be	_countUp
02c7	_detectKey
02d2	_semV
02d8	_detectEOF
02e3	_MEM
